; Function Attrs: nounwind uwtable
define void @lv_obj_delete(ptr noundef %0) local_unnamed_addr #0 {
  %2 = getelementptr inbounds nuw i8, ptr %0, i64 62
  %3 = load i16, ptr %2, align 2
  %4 = and i16 %3, 4096
  %.not = icmp eq i16 %4, 0
  br i1 %.not, label %lv_obj_get_parent.exit, label %lv_obj_get_display.exit.thread

lv_obj_get_parent.exit:                           ; preds = %1
  tail call void @lv_obj_invalidate(ptr noundef nonnull %0) #6
  %5 = getelementptr inbounds nuw i8, ptr %0, i64 8
  %6 = load ptr, ptr %5, align 8, !tbaa !3
  %7 = icmp eq ptr %6, null
  br i1 %7, label %lv_obj_get_screen.exit.i, label %.thread

.thread:                                          ; preds = %lv_obj_get_parent.exit
  tail call fastcc void @obj_delete_core(ptr noundef %0)
  %8 = getelementptr inbounds nuw i8, ptr %6, i64 62
  %9 = load i16, ptr %8, align 2
  %10 = and i16 %9, 4096
  %.not23 = icmp eq i16 %10, 0
  br i1 %.not23, label %22, label %lv_obj_get_display.exit.thread

lv_obj_get_screen.exit.i:                         ; preds = %lv_obj_get_parent.exit
  %11 = tail call ptr @lv_ll_get_head(ptr noundef nonnull getelementptr inbounds nuw (i8, ptr @lv_global, i64 8)) #6
  %.not2130.i = icmp eq ptr %11, null
  br i1 %.not2130.i, label %lv_obj_get_display.exit.thread, label %.preheader24.i

.preheader24.i:                                   ; preds = %lv_obj_get_screen.exit.i, %._crit_edge.i
  %.01831.i = phi ptr [ %21, %._crit_edge.i ], [ %11, %lv_obj_get_screen.exit.i ]
  %12 = getelementptr inbounds nuw i8, ptr %.01831.i, i64 832
  %13 = load i32, ptr %12, align 8, !tbaa !15
  %.not2228.not.i = icmp eq i32 %13, 0
  br i1 %.not2228.not.i, label %._crit_edge.i, label %.lr.ph.i

.lr.ph.i:                                         ; preds = %.preheader24.i
  %14 = getelementptr inbounds nuw i8, ptr %.01831.i, i64 776
  %15 = load ptr, ptr %14, align 8, !tbaa !30
  %wide.trip.count.i = zext i32 %13 to i64
  br label %17

16:                                               ; preds = %17
  %indvars.iv.next.i = add nuw nsw i64 %indvars.iv.i, 1
  %exitcond.not.i = icmp eq i64 %indvars.iv.next.i, %wide.trip.count.i
  br i1 %exitcond.not.i, label %._crit_edge.i, label %17, !llvm.loop !31

17:                                               ; preds = %16, %.lr.ph.i
  %indvars.iv.i = phi i64 [ 0, %.lr.ph.i ], [ %indvars.iv.next.i, %16 ]
  %18 = getelementptr inbounds nuw ptr, ptr %15, i64 %indvars.iv.i
  %19 = load ptr, ptr %18, align 8, !tbaa !33
  %20 = icmp eq ptr %19, %0
  br i1 %20, label %25, label %16

._crit_edge.i:                                    ; preds = %16, %.preheader24.i
  %21 = tail call ptr @lv_ll_get_next(ptr noundef nonnull getelementptr inbounds nuw (i8, ptr @lv_global, i64 8), ptr noundef nonnull %.01831.i) #6
  %.not21.i = icmp eq ptr %21, null
  br i1 %.not21.i, label %lv_obj_get_display.exit.thread, label %.preheader24.i, !llvm.loop !34

22:                                               ; preds = %.thread
  tail call void @lv_obj_scrollbar_invalidate(ptr noundef nonnull %6) #6
  %23 = tail call i32 @lv_obj_send_event(ptr noundef nonnull %6, i32 noundef 42, ptr noundef null) #6
  %24 = tail call i32 @lv_obj_send_event(ptr noundef nonnull %6, i32 noundef 44, ptr noundef null) #6
  br label %lv_obj_get_display.exit.thread

25:                                               ; preds = %17
  %26 = getelementptr inbounds nuw i8, ptr %.01831.i, i64 800
  %27 = load ptr, ptr %26, align 8, !tbaa !35
  %28 = icmp eq ptr %27, %0
  tail call fastcc void @obj_delete_core(ptr noundef %0)
  br i1 %28, label %29, label %lv_obj_get_display.exit.thread

29:                                               ; preds = %25
  %30 = getelementptr inbounds nuw i8, ptr %.01831.i, i64 800
  store ptr null, ptr %30, align 8, !tbaa !35
  br label %lv_obj_get_display.exit.thread

lv_obj_get_display.exit.thread:                   ; preds = %._crit_edge.i, %.thread, %22, %lv_obj_get_screen.exit.i, %25, %29, %1
  ret void
}